; Function Attrs: nounwind uwtable
define hidden void @_glfwRestoreWindowWayland(ptr noundef captures(none) %0) local_unnamed_addr #0 {
  %2 = getelementptr inbounds nuw i8, ptr %0, i64 80
  %3 = load ptr, ptr %2, align 8, !tbaa !157
  %.not = icmp eq ptr %3, null
  br i1 %.not, label %4, label %21

4:                                                ; preds = %1
  %5 = getelementptr inbounds nuw i8, ptr %0, i64 876
  %6 = load i32, ptr %5, align 4, !tbaa !150
  %.not8 = icmp eq i32 %6, 0
  br i1 %.not8, label %21, label %7

7:                                                ; preds = %4
  %8 = getelementptr inbounds nuw i8, ptr %0, i64 984
  %9 = load ptr, ptr %8, align 8, !tbaa !160
  %.not9 = icmp eq ptr %9, null
  br i1 %.not9, label %12, label %10

10:                                               ; preds = %7
  %11 = load ptr, ptr getelementptr inbounds nuw (i8, ptr @_glfw, i64 137768), align 8, !tbaa !249
  tail call void %11(ptr noundef nonnull %9) #20
  br label %21

12:                                               ; preds = %7
  %13 = getelementptr inbounds nuw i8, ptr %0, i64 960
  %14 = load ptr, ptr %13, align 8, !tbaa !235
  %.not10 = icmp eq ptr %14, null
  br i1 %.not10, label %20, label %15

15:                                               ; preds = %12
  %16 = load ptr, ptr getelementptr inbounds nuw (i8, ptr @_glfw, i64 137528), align 8, !tbaa !136
  %17 = load ptr, ptr getelementptr inbounds nuw (i8, ptr @_glfw, i64 137520), align 8, !tbaa !93
  %18 = tail call i32 %17(ptr noundef nonnull %14) #20
  %19 = tail call ptr (ptr, i32, ptr, i32, i32, ...) %16(ptr noundef nonnull %14, i32 noundef 10, ptr noundef null, i32 noundef %18, i32 noundef 0) #20
  br label %21

20:                                               ; preds = %12
  store i32 0, ptr %5, align 4, !tbaa !150
  br label %21

21:                                               ; preds = %4, %15, %20, %10, %1
  ret void
}